target datalayout = "e-m:e-p270:32:32-p271:32:32-p272:64:64-i64:64-i128:128-f80:128-n8:16:32:64-S128"
target triple = "x86_64-pc-linux-gnu"

; Function Attrs: nounwind uwtable
define hidden ptr @mi_reallocarray(ptr noundef %0, i64 noundef %1, i64 noundef %2) #0 {
  %4 = alloca ptr, align 8
  %5 = alloca i64, align 8
  %6 = alloca i64, align 8
  %7 = alloca ptr, align 8
  store ptr %0, ptr %4, align 8, !tbaa !3
  store i64 %1, ptr %5, align 8, !tbaa !7
  store i64 %2, ptr %6, align 8, !tbaa !7
  call void @llvm.lifetime.start.p0(i64 8, ptr %7) #9
  %8 = load ptr, ptr %4, align 8, !tbaa !3
  %9 = load i64, ptr %5, align 8, !tbaa !7
  %10 = load i64, ptr %6, align 8, !tbaa !7
  %11 = call ptr @mi_reallocn(ptr noundef %8, i64 noundef %9, i64 noundef %10) #8
  store ptr %11, ptr %7, align 8, !tbaa !3
  %12 = load ptr, ptr %7, align 8, !tbaa !3
  %13 = icmp eq ptr %12, null
  br i1 %13, label %14, label %16

14:                                               ; preds = %3
  %15 = call ptr @__errno_location() #10
  store i32 12, ptr %15, align 4, !tbaa !9
  br label %16

16:                                               ; preds = %14, %3
  %17 = load ptr, ptr %7, align 8, !tbaa !3
  call void @llvm.lifetime.end.p0(i64 8, ptr %7) #9
  ret ptr %17
}